(dp1
S'failed'
p2
(lp3
sS'source_names'
p4
(lp5
S'test.api'
p6
asS'ids'
p7
(dp8
I1
(S'/home/fcabrales/repo-plos/rhino/test/api/test_articlecc_json.py'
S'test.api.test_articlecc_json'
p9
S'ArticlesTest.test_add_article_revision'
tp10
sI2
(S'/home/fcabrales/repo-plos/rhino/test/api/test_articlelistcc_json.py'
S'test.api.test_articlelistcc_json'
p11
S'ArticlesListAdditions.test_article_list_patch'
tp12
sI3
(S'/home/fcabrales/repo-plos/rhino/test/api/test_articlelistcc_json.py'
g11
S'ArticlesListAdditions.test_articles_list_addition'
tp13
sI4
(S'/home/fcabrales/repo-plos/rhino/test/api/test_articlelistcc_json.py'
g11
S'ArticlesListAdditions.test_articles_list_addition_twice'
tp14
sI5
(S'/home/fcabrales/repo-plos/rhino/test/api/test_articlelistcc_json.py'
g11
S'ArticlesListAdditions.test_cleanup'
tp15
sI6
(S'/home/fcabrales/repo-plos/rhino/test/api/test_create_memory_zip_json.py'
S'test.api.test_create_memory_zip_json'
p16
S'ZipIngestibleTest.test_ingestible'
tp17
sI7
(S'/home/fcabrales/repo-plos/rhino/test/api/test_ingestiblec_json.py'
S'test.api.test_ingestiblec_json'
p18
S'ZipIngestibleTest.delete_test_article'
tp19
sI8
(S'/home/fcabrales/repo-plos/rhino/test/api/test_ingestiblec_json.py'
g18
S'ZipIngestibleTest.delete_test_collections'
tp20
sI9
(S'/home/fcabrales/repo-plos/rhino/test/api/test_ingestiblec_json.py'
g18
S'ZipIngestibleTest.delete_test_objects'
tp21
sI10
(S'/home/fcabrales/repo-plos/rhino/test/api/test_ingestiblec_json.py'
g18
S'ZipIngestibleTest.test_ingestible'
tp22
sI11
(S'/home/fcabrales/repo-plos/rhino/test/api/test_zip_ingestion_json.py'
S'test.api.test_zip_ingestion_json'
p23
S'ZipIngestionTest.delete_test_article'
tp24
sI12
(S'/home/fcabrales/repo-plos/rhino/test/api/test_zip_ingestion_json.py'
g23
S'ZipIngestionTest.delete_test_collections'
tp25
sI13
(S'/home/fcabrales/repo-plos/rhino/test/api/test_zip_ingestion_json.py'
g23
S'ZipIngestionTest.delete_test_objects'
tp26
sI14
(S'/home/fcabrales/repo-plos/rhino/test/api/test_zip_ingestion_json.py'
g23
S'ZipIngestionTest.test_zip_ingestion'
tp27
sI15
(S'/home/fcabrales/repo-plos/rhino/test/api/test_zip_ingestion_json.py'
g23
S'ZipIngestionTest.test_zip_ingestion_without_file'
tp28
ss.